target datalayout = "e-m:e-p270:32:32-p271:32:32-p272:64:64-i64:64-i128:128-f80:128-n8:16:32:64-S128"
target triple = "x86_64-pc-linux-gnu"

%struct.prolog_state = type { ptr, i32, i32, i32, i32, i32 }

; Function Attrs: nounwind uwtable
define internal i32 @common(ptr noundef %0, i32 noundef %1) #0 {
  %3 = alloca i32, align 4
  %4 = alloca ptr, align 8
  %5 = alloca i32, align 4
  store ptr %0, ptr %4, align 8, !tbaa !3
  store i32 %1, ptr %5, align 4, !tbaa !14
  %6 = load ptr, ptr %4, align 8, !tbaa !3
  %7 = getelementptr inbounds nuw %struct.prolog_state, ptr %6, i32 0, i32 4
  %8 = load i32, ptr %7, align 4, !tbaa !11
  %9 = icmp ne i32 %8, 0
  br i1 %9, label %14, label %10

10:                                               ; preds = %2
  %11 = load i32, ptr %5, align 4, !tbaa !14
  %12 = icmp eq i32 %11, 28
  br i1 %12, label %13, label %14

13:                                               ; preds = %10
  store i32 59, ptr %3, align 4
  br label %17

14:                                               ; preds = %10, %2
  %15 = load ptr, ptr %4, align 8, !tbaa !3
  %16 = getelementptr inbounds nuw %struct.prolog_state, ptr %15, i32 0, i32 0
  store ptr @error, ptr %16, align 8, !tbaa !8
  store i32 -1, ptr %3, align 4
  br label %17

17:                                               ; preds = %14, %13
  %18 = load i32, ptr %3, align 4
  ret i32 %18
}

; Function Attrs: nounwind uwtable
define internal i32 @externalSubset1(ptr noundef %0, i32 noundef %1, ptr noundef %2, ptr noundef %3, ptr noundef %4) #0 {
  %6 = alloca i32, align 4
  %7 = alloca ptr, align 8
  %8 = alloca i32, align 4
  %9 = alloca ptr, align 8
  %10 = alloca ptr, align 8
  %11 = alloca ptr, align 8
  store ptr %0, ptr %7, align 8, !tbaa !3
  store i32 %1, ptr %8, align 4, !tbaa !14
  store ptr %2, ptr %9, align 8, !tbaa !15
  store ptr %3, ptr %10, align 8, !tbaa !15
  store ptr %4, ptr %11, align 8, !tbaa !17
  %12 = load i32, ptr %8, align 4, !tbaa !14
  switch i32 %12, label %35 [
    i32 33, label %13
    i32 34, label %16
    i32 15, label %27
    i32 26, label %42
    i32 -4, label %28
  ]

13:                                               ; preds = %5
  %14 = load ptr, ptr %7, align 8, !tbaa !3
  %15 = getelementptr inbounds nuw %struct.prolog_state, ptr %14, i32 0, i32 0
  store ptr @condSect0, ptr %15, align 8, !tbaa !8
  store i32 0, ptr %6, align 4
  br label %46

16:                                               ; preds = %5
  %17 = load ptr, ptr %7, align 8, !tbaa !3
  %18 = getelementptr inbounds nuw %struct.prolog_state, ptr %17, i32 0, i32 3
  %19 = load i32, ptr %18, align 8, !tbaa !12
  %20 = icmp eq i32 %19, 0
  br i1 %20, label %21, label %22

21:                                               ; preds = %16
  br label %42

22:                                               ; preds = %16
  %23 = load ptr, ptr %7, align 8, !tbaa !3
  %24 = getelementptr inbounds nuw %struct.prolog_state, ptr %23, i32 0, i32 3
  %25 = load i32, ptr %24, align 8, !tbaa !12
  %26 = sub i32 %25, 1
  store i32 %26, ptr %24, align 8, !tbaa !12
  store i32 0, ptr %6, align 4
  br label %46

27:                                               ; preds = %5
  store i32 0, ptr %6, align 4
  br label %46

28:                                               ; preds = %5
  %29 = load ptr, ptr %7, align 8, !tbaa !3
  %30 = getelementptr inbounds nuw %struct.prolog_state, ptr %29, i32 0, i32 3
  %31 = load i32, ptr %30, align 8, !tbaa !12
  %32 = icmp ne i32 %31, 0
  br i1 %32, label %33, label %34

33:                                               ; preds = %28
  br label %42

34:                                               ; preds = %28
  store i32 0, ptr %6, align 4
  br label %46

35:                                               ; preds = %5
  %36 = load ptr, ptr %7, align 8, !tbaa !3
  %37 = load i32, ptr %8, align 4, !tbaa !14
  %38 = load ptr, ptr %9, align 8, !tbaa !15
  %39 = load ptr, ptr %10, align 8, !tbaa !15
  %40 = load ptr, ptr %11, align 8, !tbaa !17
  %41 = call i32 @internalSubset(ptr noundef %36, i32 noundef %37, ptr noundef %38, ptr noundef %39, ptr noundef %40)
  store i32 %41, ptr %6, align 4
  br label %46

42:                                               ; preds = %33, %5, %21
  %43 = load ptr, ptr %7, align 8, !tbaa !3
  %44 = load i32, ptr %8, align 4, !tbaa !14
  %45 = call i32 @common(ptr noundef %43, i32 noundef %44)
  store i32 %45, ptr %6, align 4
  br label %46

46:                                               ; preds = %42, %35, %34, %27, %22, %13
  %47 = load i32, ptr %6, align 4
  ret i32 %47
}