; Function Attrs: nounwind uwtable
define internal range(i32 -1, 61) i32 @externalSubset1(ptr noundef captures(none) %0, i32 noundef %1, ptr noundef %2, ptr noundef %3, ptr noundef %4) #1 {
  switch i32 %1, label %16 [
    i32 33, label %6
    i32 34, label %7
    i32 15, label %18
    i32 26, label %common.exit
    i32 -4, label %13
  ]

6:                                                ; preds = %5
  store ptr @condSect0, ptr %0, align 8, !tbaa !3
  br label %18

7:                                                ; preds = %5
  %8 = getelementptr inbounds nuw i8, ptr %0, i64 16
  %9 = load i32, ptr %8, align 8, !tbaa !10
  %10 = icmp eq i32 %9, 0
  br i1 %10, label %common.exit, label %11

11:                                               ; preds = %7
  %12 = add i32 %9, -1
  store i32 %12, ptr %8, align 8, !tbaa !10
  br label %18

13:                                               ; preds = %5
  %14 = getelementptr inbounds nuw i8, ptr %0, i64 16
  %15 = load i32, ptr %14, align 8, !tbaa !10
  %.not = icmp eq i32 %15, 0
  br i1 %.not, label %18, label %common.exit

16:                                               ; preds = %5
  %17 = tail call i32 @internalSubset(ptr noundef %0, i32 noundef %1, ptr noundef %2, ptr noundef %3, ptr noundef %4)
  br label %18

common.exit:                                      ; preds = %13, %7, %5
  store ptr @error, ptr %0, align 8, !tbaa !3
  br label %18

18:                                               ; preds = %13, %5, %common.exit, %16, %11, %6
  %.0 = phi i32 [ %17, %16 ], [ -1, %common.exit ], [ 0, %11 ], [ 0, %6 ], [ 0, %5 ], [ 0, %13 ]
  ret i32 %.0
}